; Function Attrs: nounwind uwtable
define range(i32 -1, 1) i32 @evbuffer_expand(ptr noundef captures(none) %0, i64 noundef %1) local_unnamed_addr #1 {
  %3 = getelementptr inbounds nuw i8, ptr %0, i64 56
  %4 = load ptr, ptr %3, align 8
  %.not = icmp eq ptr %4, null
  br i1 %.not, label %8, label %5

5:                                                ; preds = %2
  %6 = load ptr, ptr getelementptr inbounds nuw (i8, ptr @evthread_lock_fns_, i64 24), align 8
  %7 = tail call i32 %6(i32 noundef 0, ptr noundef nonnull %4) #16
  br label %8

8:                                                ; preds = %5, %2
  %9 = tail call fastcc ptr @evbuffer_expand_singlechain(ptr noundef nonnull %0, i64 noundef %1)
  %10 = load ptr, ptr %3, align 8
  %.not7 = icmp eq ptr %10, null
  br i1 %.not7, label %14, label %11

11:                                               ; preds = %8
  %12 = load ptr, ptr getelementptr inbounds nuw (i8, ptr @evthread_lock_fns_, i64 32), align 8
  %13 = tail call i32 %12(i32 noundef 0, ptr noundef nonnull %10) #16
  br label %14

14:                                               ; preds = %11, %8
  %.not8 = icmp eq ptr %9, null
  %15 = sext i1 %.not8 to i32
  ret i32 %15
}